; Function Attrs: mustprogress uwtable
define hidden noundef ptr @_ZN13sexpr_manager9mk_symbolERK6symboljj(ptr noundef nonnull align 8 dereferenceable(528) %0, ptr noundef nonnull readonly align 8 captures(none) dereferenceable(8) %1, i32 noundef %2, i32 noundef %3) local_unnamed_addr #7 align 2 {
  %5 = tail call noundef ptr @_ZN22small_object_allocator8allocateEm(ptr noundef nonnull align 8 dereferenceable(520) %0, i64 noundef 24)
  store i32 5, ptr %5, align 4, !tbaa !3
  %6 = getelementptr inbounds nuw i8, ptr %5, i64 4
  store i32 0, ptr %6, align 4, !tbaa !9
  %7 = getelementptr inbounds nuw i8, ptr %5, i64 8
  store i32 %2, ptr %7, align 4, !tbaa !10
  %8 = getelementptr inbounds nuw i8, ptr %5, i64 12
  store i32 %3, ptr %8, align 4, !tbaa !11
  %9 = getelementptr inbounds nuw i8, ptr %5, i64 16
  %10 = load i64, ptr %1, align 8, !tbaa !20
  store i64 %10, ptr %9, align 8, !tbaa !20
  ret ptr %5
}